target datalayout = "e-m:e-p270:32:32-p271:32:32-p272:64:64-i64:64-i128:128-f80:128-n8:16:32:64-S128"
target triple = "x86_64-pc-linux-gnu"

%struct.asn1_string_st = type { i32, i32, ptr, i64 }

; Function Attrs: nounwind uwtable
define i32 @ASN1_STRING_cmp(ptr noundef %0, ptr noundef %1) #0 {
  %3 = alloca i32, align 4
  %4 = alloca ptr, align 8
  %5 = alloca ptr, align 8
  %6 = alloca i32, align 4
  %7 = alloca i32, align 4
  store ptr %0, ptr %4, align 8, !tbaa !29
  store ptr %1, ptr %5, align 8, !tbaa !29
  call void @llvm.lifetime.start.p0(i64 4, ptr %6) #7
  %8 = load ptr, ptr %4, align 8, !tbaa !29
  %9 = getelementptr inbounds nuw %struct.asn1_string_st, ptr %8, i32 0, i32 0
  %10 = load i32, ptr %9, align 8, !tbaa !35
  %11 = load ptr, ptr %5, align 8, !tbaa !29
  %12 = getelementptr inbounds nuw %struct.asn1_string_st, ptr %11, i32 0, i32 0
  %13 = load i32, ptr %12, align 8, !tbaa !35
  %14 = sub nsw i32 %10, %13
  store i32 %14, ptr %6, align 4, !tbaa !17
  %15 = load i32, ptr %6, align 4, !tbaa !17
  %16 = icmp eq i32 %15, 0
  br i1 %16, label %17, label %47

17:                                               ; preds = %2
  %18 = load ptr, ptr %4, align 8, !tbaa !29
  %19 = getelementptr inbounds nuw %struct.asn1_string_st, ptr %18, i32 0, i32 0
  %20 = load i32, ptr %19, align 8, !tbaa !35
  %21 = icmp ne i32 %20, 0
  br i1 %21, label %22, label %34

22:                                               ; preds = %17
  %23 = load ptr, ptr %4, align 8, !tbaa !29
  %24 = getelementptr inbounds nuw %struct.asn1_string_st, ptr %23, i32 0, i32 2
  %25 = load ptr, ptr %24, align 8, !tbaa !34
  %26 = load ptr, ptr %5, align 8, !tbaa !29
  %27 = getelementptr inbounds nuw %struct.asn1_string_st, ptr %26, i32 0, i32 2
  %28 = load ptr, ptr %27, align 8, !tbaa !34
  %29 = load ptr, ptr %4, align 8, !tbaa !29
  %30 = getelementptr inbounds nuw %struct.asn1_string_st, ptr %29, i32 0, i32 0
  %31 = load i32, ptr %30, align 8, !tbaa !35
  %32 = sext i32 %31 to i64
  %33 = call i32 @memcmp(ptr noundef %25, ptr noundef %28, i64 noundef %32) #8
  store i32 %33, ptr %6, align 4, !tbaa !17
  br label %34

34:                                               ; preds = %22, %17
  %35 = load i32, ptr %6, align 4, !tbaa !17
  %36 = icmp eq i32 %35, 0
  br i1 %36, label %37, label %45

37:                                               ; preds = %34
  %38 = load ptr, ptr %4, align 8, !tbaa !29
  %39 = getelementptr inbounds nuw %struct.asn1_string_st, ptr %38, i32 0, i32 1
  %40 = load i32, ptr %39, align 4, !tbaa !33
  %41 = load ptr, ptr %5, align 8, !tbaa !29
  %42 = getelementptr inbounds nuw %struct.asn1_string_st, ptr %41, i32 0, i32 1
  %43 = load i32, ptr %42, align 4, !tbaa !33
  %44 = sub nsw i32 %40, %43
  store i32 %44, ptr %3, align 4
  store i32 1, ptr %7, align 4
  br label %49

45:                                               ; preds = %34
  %46 = load i32, ptr %6, align 4, !tbaa !17
  store i32 %46, ptr %3, align 4
  store i32 1, ptr %7, align 4
  br label %49

47:                                               ; preds = %2
  %48 = load i32, ptr %6, align 4, !tbaa !17
  store i32 %48, ptr %3, align 4
  store i32 1, ptr %7, align 4
  br label %49

49:                                               ; preds = %47, %45, %37
  call void @llvm.lifetime.end.p0(i64 4, ptr %6) #7
  %50 = load i32, ptr %3, align 4
  ret i32 %50
}