; Function Attrs: mustprogress nofree nounwind willreturn memory(read, inaccessiblemem: none) uwtable
define i32 @ASN1_STRING_cmp(ptr noundef readonly captures(none) %0, ptr noundef readonly captures(none) %1) local_unnamed_addr #9 {
  %3 = load i32, ptr %0, align 8, !tbaa !26
  %4 = load i32, ptr %1, align 8, !tbaa !26
  %5 = sub nsw i32 %3, %4
  %6 = icmp eq i32 %5, 0
  br i1 %6, label %7, label %21

7:                                                ; preds = %2
  %.not = icmp eq i32 %3, 0
  br i1 %.not, label %.thread, label %8

8:                                                ; preds = %7
  %9 = getelementptr inbounds nuw i8, ptr %0, i64 8
  %10 = load ptr, ptr %9, align 8, !tbaa !25
  %11 = getelementptr inbounds nuw i8, ptr %1, i64 8
  %12 = load ptr, ptr %11, align 8, !tbaa !25
  %13 = sext i32 %3 to i64
  %14 = tail call i32 @memcmp(ptr noundef %10, ptr noundef %12, i64 noundef %13) #14
  %15 = icmp eq i32 %14, 0
  br i1 %15, label %.thread, label %21

.thread:                                          ; preds = %7, %8
  %16 = getelementptr inbounds nuw i8, ptr %0, i64 4
  %17 = load i32, ptr %16, align 4, !tbaa !24
  %18 = getelementptr inbounds nuw i8, ptr %1, i64 4
  %19 = load i32, ptr %18, align 4, !tbaa !24
  %20 = sub nsw i32 %17, %19
  br label %21

21:                                               ; preds = %2, %8, %.thread
  %.012 = phi i32 [ %20, %.thread ], [ %14, %8 ], [ %5, %2 ]
  ret i32 %.012
}